target datalayout = "e-m:e-p270:32:32-p271:32:32-p272:64:64-i64:64-i128:128-f80:128-n8:16:32:64-S128"
target triple = "x86_64-pc-linux-gnu"

%struct.algo_time_t = type { i32, i32 }

@HUFv07_decompress.decompress = internal constant [2 x ptr] [ptr @HUFv07_decompress4X2, ptr @HUFv07_decompress4X4], align 16

; Function Attrs: nounwind uwtable
define i32 @HUFv07_selectDecoder(i64 noundef %0, i64 noundef %1) #0 {
  %3 = alloca i64, align 8
  %4 = alloca i64, align 8
  %5 = alloca i32, align 4
  %6 = alloca i32, align 4
  %7 = alloca i32, align 4
  %8 = alloca i32, align 4
  store i64 %0, ptr %3, align 8, !tbaa !3
  store i64 %1, ptr %4, align 8, !tbaa !3
  call void @llvm.lifetime.start.p0(i64 4, ptr %5) #11
  %9 = load i64, ptr %4, align 8, !tbaa !3
  %10 = mul i64 %9, 16
  %11 = load i64, ptr %3, align 8, !tbaa !3
  %12 = udiv i64 %10, %11
  %13 = trunc i64 %12 to i32
  store i32 %13, ptr %5, align 4, !tbaa !15
  call void @llvm.lifetime.start.p0(i64 4, ptr %6) #11
  %14 = load i64, ptr %3, align 8, !tbaa !3
  %15 = lshr i64 %14, 8
  %16 = trunc i64 %15 to i32
  store i32 %16, ptr %6, align 4, !tbaa !15
  call void @llvm.lifetime.start.p0(i64 4, ptr %7) #11
  %17 = load i32, ptr %5, align 4, !tbaa !15
  %18 = zext i32 %17 to i64
  %19 = getelementptr inbounds nuw [16 x [3 x %struct.algo_time_t]], ptr @algoTime, i64 0, i64 %18
  %20 = getelementptr inbounds [3 x %struct.algo_time_t], ptr %19, i64 0, i64 0
  %21 = getelementptr inbounds nuw %struct.algo_time_t, ptr %20, i32 0, i32 0
  %22 = load i32, ptr %21, align 8, !tbaa !64
  %23 = load i32, ptr %5, align 4, !tbaa !15
  %24 = zext i32 %23 to i64
  %25 = getelementptr inbounds nuw [16 x [3 x %struct.algo_time_t]], ptr @algoTime, i64 0, i64 %24
  %26 = getelementptr inbounds [3 x %struct.algo_time_t], ptr %25, i64 0, i64 0
  %27 = getelementptr inbounds nuw %struct.algo_time_t, ptr %26, i32 0, i32 1
  %28 = load i32, ptr %27, align 4, !tbaa !66
  %29 = load i32, ptr %6, align 4, !tbaa !15
  %30 = mul i32 %28, %29
  %31 = add i32 %22, %30
  store i32 %31, ptr %7, align 4, !tbaa !15
  call void @llvm.lifetime.start.p0(i64 4, ptr %8) #11
  %32 = load i32, ptr %5, align 4, !tbaa !15
  %33 = zext i32 %32 to i64
  %34 = getelementptr inbounds nuw [16 x [3 x %struct.algo_time_t]], ptr @algoTime, i64 0, i64 %33
  %35 = getelementptr inbounds [3 x %struct.algo_time_t], ptr %34, i64 0, i64 1
  %36 = getelementptr inbounds nuw %struct.algo_time_t, ptr %35, i32 0, i32 0
  %37 = load i32, ptr %36, align 8, !tbaa !64
  %38 = load i32, ptr %5, align 4, !tbaa !15
  %39 = zext i32 %38 to i64
  %40 = getelementptr inbounds nuw [16 x [3 x %struct.algo_time_t]], ptr @algoTime, i64 0, i64 %39
  %41 = getelementptr inbounds [3 x %struct.algo_time_t], ptr %40, i64 0, i64 1
  %42 = getelementptr inbounds nuw %struct.algo_time_t, ptr %41, i32 0, i32 1
  %43 = load i32, ptr %42, align 4, !tbaa !66
  %44 = load i32, ptr %6, align 4, !tbaa !15
  %45 = mul i32 %43, %44
  %46 = add i32 %37, %45
  store i32 %46, ptr %8, align 4, !tbaa !15
  %47 = load i32, ptr %8, align 4, !tbaa !15
  %48 = lshr i32 %47, 3
  %49 = load i32, ptr %8, align 4, !tbaa !15
  %50 = add i32 %49, %48
  store i32 %50, ptr %8, align 4, !tbaa !15
  %51 = load i32, ptr %8, align 4, !tbaa !15
  %52 = load i32, ptr %7, align 4, !tbaa !15
  %53 = icmp ult i32 %51, %52
  %54 = zext i1 %53 to i32
  call void @llvm.lifetime.end.p0(i64 4, ptr %8) #11
  call void @llvm.lifetime.end.p0(i64 4, ptr %7) #11
  call void @llvm.lifetime.end.p0(i64 4, ptr %6) #11
  call void @llvm.lifetime.end.p0(i64 4, ptr %5) #11
  ret i32 %54
}

; Function Attrs: nounwind uwtable
define i64 @HUFv07_decompress(ptr noundef %0, i64 noundef %1, ptr noundef %2, i64 noundef %3) #0 {
  %5 = alloca i64, align 8
  %6 = alloca ptr, align 8
  %7 = alloca i64, align 8
  %8 = alloca ptr, align 8
  %9 = alloca i64, align 8
  %10 = alloca i32, align 4
  store ptr %0, ptr %6, align 8, !tbaa !12
  store i64 %1, ptr %7, align 8, !tbaa !3
  store ptr %2, ptr %8, align 8, !tbaa !12
  store i64 %3, ptr %9, align 8, !tbaa !3
  %11 = load i64, ptr %7, align 8, !tbaa !3
  %12 = icmp eq i64 %11, 0
  br i1 %12, label %13, label %14

13:                                               ; preds = %4
  store i64 -70, ptr %5, align 8
  br label %52

14:                                               ; preds = %4
  %15 = load i64, ptr %9, align 8, !tbaa !3
  %16 = load i64, ptr %7, align 8, !tbaa !3
  %17 = icmp ugt i64 %15, %16
  br i1 %17, label %18, label %19

18:                                               ; preds = %14
  store i64 -20, ptr %5, align 8
  br label %52

19:                                               ; preds = %14
  %20 = load i64, ptr %9, align 8, !tbaa !3
  %21 = load i64, ptr %7, align 8, !tbaa !3
  %22 = icmp eq i64 %20, %21
  br i1 %22, label %23, label %28

23:                                               ; preds = %19
  %24 = load ptr, ptr %6, align 8, !tbaa !12
  %25 = load ptr, ptr %8, align 8, !tbaa !12
  %26 = load i64, ptr %7, align 8, !tbaa !3
  call void @llvm.memcpy.p0.p0.i64(ptr align 1 %24, ptr align 1 %25, i64 %26, i1 false)
  %27 = load i64, ptr %7, align 8, !tbaa !3
  store i64 %27, ptr %5, align 8
  br label %52

28:                                               ; preds = %19
  %29 = load i64, ptr %9, align 8, !tbaa !3
  %30 = icmp eq i64 %29, 1
  br i1 %30, label %31, label %39

31:                                               ; preds = %28
  %32 = load ptr, ptr %6, align 8, !tbaa !12
  %33 = load ptr, ptr %8, align 8, !tbaa !12
  %34 = load i8, ptr %33, align 1, !tbaa !25
  %35 = zext i8 %34 to i32
  %36 = trunc i32 %35 to i8
  %37 = load i64, ptr %7, align 8, !tbaa !3
  call void @llvm.memset.p0.i64(ptr align 1 %32, i8 %36, i64 %37, i1 false)
  %38 = load i64, ptr %7, align 8, !tbaa !3
  store i64 %38, ptr %5, align 8
  br label %52

39:                                               ; preds = %28
  call void @llvm.lifetime.start.p0(i64 4, ptr %10) #11
  %40 = load i64, ptr %7, align 8, !tbaa !3
  %41 = load i64, ptr %9, align 8, !tbaa !3
  %42 = call i32 @HUFv07_selectDecoder(i64 noundef %40, i64 noundef %41)
  store i32 %42, ptr %10, align 4, !tbaa !15
  %43 = load i32, ptr %10, align 4, !tbaa !15
  %44 = zext i32 %43 to i64
  %45 = getelementptr inbounds nuw [2 x ptr], ptr @HUFv07_decompress.decompress, i64 0, i64 %44
  %46 = load ptr, ptr %45, align 8, !tbaa !12
  %47 = load ptr, ptr %6, align 8, !tbaa !12
  %48 = load i64, ptr %7, align 8, !tbaa !3
  %49 = load ptr, ptr %8, align 8, !tbaa !12
  %50 = load i64, ptr %9, align 8, !tbaa !3
  %51 = call i64 %46(ptr noundef %47, i64 noundef %48, ptr noundef %49, i64 noundef %50)
  store i64 %51, ptr %5, align 8
  call void @llvm.lifetime.end.p0(i64 4, ptr %10) #11
  br label %52

52:                                               ; preds = %39, %31, %23, %18, %13
  %53 = load i64, ptr %5, align 8
  ret i64 %53
}