; Function Attrs: nounwind uwtable
define i64 @HUFv07_decompress(ptr noundef %0, i64 noundef %1, ptr noundef %2, i64 noundef %3) local_unnamed_addr #1 {
  %5 = icmp eq i64 %1, 0
  br i1 %5, label %40, label %6

6:                                                ; preds = %4
  %7 = icmp ugt i64 %3, %1
  br i1 %7, label %40, label %8

8:                                                ; preds = %6
  %9 = icmp eq i64 %3, %1
  br i1 %9, label %10, label %11

10:                                               ; preds = %8
  tail call void @llvm.memcpy.p0.p0.i64(ptr align 1 %0, ptr align 1 %2, i64 %1, i1 false)
  br label %40

11:                                               ; preds = %8
  %12 = icmp eq i64 %3, 1
  br i1 %12, label %13, label %15

13:                                               ; preds = %11
  %14 = load i8, ptr %2, align 1, !tbaa !14
  tail call void @llvm.memset.p0.i64(ptr align 1 %0, i8 %14, i64 %1, i1 false)
  br label %40

15:                                               ; preds = %11
  %16 = shl i64 %3, 4
  %17 = udiv i64 %16, %1
  %18 = lshr i64 %1, 8
  %19 = trunc i64 %18 to i32
  %20 = and i64 %17, 4294967295
  %21 = getelementptr inbounds nuw [16 x [3 x %struct.algo_time_t]], ptr @algoTime, i64 0, i64 %20
  %22 = load i32, ptr %21, align 8, !tbaa !58
  %23 = getelementptr inbounds nuw i8, ptr %21, i64 4
  %24 = load i32, ptr %23, align 4, !tbaa !60
  %25 = mul i32 %24, %19
  %26 = add i32 %25, %22
  %27 = getelementptr inbounds nuw i8, ptr %21, i64 8
  %28 = load i32, ptr %27, align 8, !tbaa !58
  %29 = getelementptr inbounds nuw i8, ptr %21, i64 12
  %30 = load i32, ptr %29, align 4, !tbaa !60
  %31 = mul i32 %30, %19
  %32 = add i32 %31, %28
  %33 = lshr i32 %32, 3
  %34 = add i32 %33, %32
  %35 = icmp ult i32 %34, %26
  %36 = zext i1 %35 to i64
  %37 = getelementptr inbounds nuw [2 x ptr], ptr @HUFv07_decompress.decompress, i64 0, i64 %36
  %38 = load ptr, ptr %37, align 8, !tbaa !61
  %39 = tail call i64 %38(ptr noundef %0, i64 noundef %1, ptr noundef %2, i64 noundef %3) #26
  br label %40

40:                                               ; preds = %6, %4, %15, %13, %10
  %.0 = phi i64 [ %1, %10 ], [ %1, %13 ], [ %39, %15 ], [ -70, %4 ], [ -20, %6 ]
  ret i64 %.0
}